target datalayout = "e-m:e-p270:32:32-p271:32:32-p272:64:64-i64:64-i128:128-f80:128-n8:16:32:64-S128"
target triple = "x86_64-pc-linux-gnu"

%"class.std::__cxx11::basic_string" = type { %"struct.std::__cxx11::basic_string<char>::_Alloc_hider", i64, %union.anon }
%"struct.std::__cxx11::basic_string<char>::_Alloc_hider" = type { ptr }
%union.anon = type { i64, [8 x i8] }
%"class.rc::Gen.2" = type { ptr, %"class.std::__cxx11::basic_string" }
%class.anon.3 = type { i8 }
%"class.rc::gen::detail::FilterGen" = type { %class.anon.3, %"class.rc::Gen.2" }
%"struct.std::atomic" = type { %"struct.std::__atomic_base" }
%"struct.std::__atomic_base" = type { i64 }
%"class.rc::Gen<std::__cxx11::basic_string<char>>::IGenImpl" = type { ptr }
%"class.rc::Gen<std::__cxx11::basic_string<char>>::GenImpl.151" = type { %"class.rc::Gen<std::__cxx11::basic_string<char>>::IGenImpl", %"class.rc::gen::detail::FilterGen", %"struct.std::atomic" }

; Function Attrs: mustprogress nounwind uwtable
define internal void @"_ZN2rc3GenINSt7__cxx1112basic_stringIcSt11char_traitsIcESaIcEEEE7GenImplINS_3gen6detail9FilterGenIS6_ZNS_9ArbitraryIN3nix13StorePathNameEvE9arbitraryEvE3$_0EEE7releaseEv"(ptr noundef nonnull align 8 dereferenceable(64) %0) unnamed_addr #4 align 2 {
  %2 = alloca ptr, align 8
  %3 = alloca i64, align 8
  %4 = alloca i32, align 4
  %5 = alloca i64, align 8
  %6 = alloca i64, align 8
  %7 = alloca ptr, align 8
  store ptr %0, ptr %7, align 8
  %8 = load ptr, ptr %7, align 8
  %9 = getelementptr inbounds %"class.rc::Gen<std::__cxx11::basic_string<char>>::GenImpl.151", ptr %8, i32 0, i32 2
  store ptr %9, ptr %2, align 8
  store i64 1, ptr %3, align 8
  store i32 5, ptr %4, align 4
  %10 = load ptr, ptr %2, align 8
  %11 = load i32, ptr %4, align 4
  %12 = load i64, ptr %3, align 8
  store i64 %12, ptr %5, align 8
  switch i32 %11, label %13 [
    i32 1, label %16
    i32 2, label %16
    i32 3, label %19
    i32 4, label %22
    i32 5, label %25
  ]

13:                                               ; preds = %1
  %14 = load i64, ptr %5, align 8
  %15 = atomicrmw sub ptr %10, i64 %14 monotonic, align 8
  store i64 %15, ptr %6, align 8
  br label %28

16:                                               ; preds = %1, %1
  %17 = load i64, ptr %5, align 8
  %18 = atomicrmw sub ptr %10, i64 %17 acquire, align 8
  store i64 %18, ptr %6, align 8
  br label %28

19:                                               ; preds = %1
  %20 = load i64, ptr %5, align 8
  %21 = atomicrmw sub ptr %10, i64 %20 release, align 8
  store i64 %21, ptr %6, align 8
  br label %28

22:                                               ; preds = %1
  %23 = load i64, ptr %5, align 8
  %24 = atomicrmw sub ptr %10, i64 %23 acq_rel, align 8
  store i64 %24, ptr %6, align 8
  br label %28

25:                                               ; preds = %1
  %26 = load i64, ptr %5, align 8
  %27 = atomicrmw sub ptr %10, i64 %26 seq_cst, align 8
  store i64 %27, ptr %6, align 8
  br label %28

28:                                               ; preds = %25, %22, %19, %16, %13
  %29 = load i64, ptr %6, align 8
  %30 = icmp eq i64 %29, 1
  br i1 %30, label %31, label %38

31:                                               ; preds = %28
  %32 = icmp eq ptr %8, null
  br i1 %32, label %37, label %33

33:                                               ; preds = %31
  %34 = load ptr, ptr %8, align 8
  %35 = getelementptr inbounds ptr, ptr %34, i64 4
  %36 = load ptr, ptr %35, align 8
  call void %36(ptr noundef nonnull align 8 dereferenceable(64) %8) #3
  br label %37

37:                                               ; preds = %33, %31
  br label %38

38:                                               ; preds = %37, %28
  ret void
}