; Function Attrs: mustprogress nounwind uwtable
define internal void @"_ZN2rc3GenINSt7__cxx1112basic_stringIcSt11char_traitsIcESaIcEEEE7GenImplINS_3gen6detail9FilterGenIS6_ZNS_9ArbitraryIN3nix13StorePathNameEvE9arbitraryEvE3$_0EEE7releaseEv"(ptr noundef nonnull align 8 dereferenceable(64) %0) unnamed_addr #5 align 2 {
  %2 = getelementptr inbounds i8, ptr %0, i64 56
  %3 = atomicrmw sub ptr %2, i64 1 seq_cst, align 8
  %.not = icmp eq i64 %3, 1
  br i1 %.not, label %4, label %8

4:                                                ; preds = %1
  %5 = load ptr, ptr %0, align 8
  %6 = getelementptr inbounds i8, ptr %5, i64 32
  %7 = load ptr, ptr %6, align 8
  tail call void %7(ptr noundef nonnull align 8 dereferenceable(64) %0) #21
  br label %8

8:                                                ; preds = %4, %1
  ret void
}